target datalayout = "e-m:e-p270:32:32-p271:32:32-p272:64:64-i64:64-i128:128-f80:128-n8:16:32:64-S128"
target triple = "x86_64-pc-linux-gnu"

%struct.nstime_t = type { i64, i32 }

@.str.425 = private unnamed_addr constant [29 x i8] c"%s:%u: failed assertion \22%s\22\00", align 1
@.str.426 = private unnamed_addr constant [29 x i8] c"epan/dissectors/packet-erf.c\00", align 1
@.str.446 = private unnamed_addr constant [2 x i8] c"t\00", align 1
@.str.447 = private unnamed_addr constant [15 x i8] c"%d nanoseconds\00", align 1

; Function Attrs: null_pointer_is_valid sspstrong uwtable
define internal ptr @dissect_relative_time(ptr noundef %0, i32 noundef %1, ptr noundef %2, i32 noundef %3, i32 noundef %4, ptr noundef %5) #2 {
  %7 = alloca ptr, align 8
  %8 = alloca i32, align 4
  %9 = alloca ptr, align 8
  %10 = alloca i32, align 4
  %11 = alloca i32, align 4
  %12 = alloca ptr, align 8
  %13 = alloca ptr, align 8
  store ptr %0, ptr %7, align 8
  store i32 %1, ptr %8, align 4
  store ptr %2, ptr %9, align 8
  store i32 %3, ptr %10, align 4
  store i32 %4, ptr %11, align 4
  store ptr %5, ptr %12, align 8
  call void @llvm.lifetime.start.p0(i64 8, ptr %13) #14
  store ptr null, ptr %13, align 8
  %14 = load ptr, ptr %12, align 8
  %15 = icmp ne ptr %14, null
  br i1 %15, label %16, label %17

16:                                               ; preds = %6
  br label %19

17:                                               ; preds = %6
  call void (ptr, ...) @proto_report_dissector_bug(ptr noundef @.str.425, ptr noundef @.str.426, i32 noundef 2585, ptr noundef @.str.446) #15
  unreachable

18:                                               ; No predecessors!
  br label %19

19:                                               ; preds = %18, %16
  %20 = load ptr, ptr %12, align 8
  %21 = getelementptr inbounds nuw %struct.nstime_t, ptr %20, i32 0, i32 0
  %22 = load i64, ptr %21, align 8
  %23 = icmp eq i64 %22, 0
  br i1 %23, label %24, label %45

24:                                               ; preds = %19
  %25 = load ptr, ptr %12, align 8
  %26 = getelementptr inbounds nuw %struct.nstime_t, ptr %25, i32 0, i32 1
  %27 = load i32, ptr %26, align 8
  %28 = icmp slt i32 %27, 1000000
  br i1 %28, label %29, label %45

29:                                               ; preds = %24
  %30 = load ptr, ptr %12, align 8
  %31 = getelementptr inbounds nuw %struct.nstime_t, ptr %30, i32 0, i32 1
  %32 = load i32, ptr %31, align 8
  %33 = icmp sgt i32 %32, -1000000
  br i1 %33, label %34, label %45

34:                                               ; preds = %29
  %35 = load ptr, ptr %7, align 8
  %36 = load i32, ptr %8, align 4
  %37 = load ptr, ptr %9, align 8
  %38 = load i32, ptr %10, align 4
  %39 = load i32, ptr %11, align 4
  %40 = load ptr, ptr %12, align 8
  %41 = load ptr, ptr %12, align 8
  %42 = getelementptr inbounds nuw %struct.nstime_t, ptr %41, i32 0, i32 1
  %43 = load i32, ptr %42, align 8
  %44 = call ptr (ptr, i32, ptr, i32, i32, ptr, ptr, ...) @proto_tree_add_time_format_value(ptr noundef %35, i32 noundef %36, ptr noundef %37, i32 noundef %38, i32 noundef %39, ptr noundef %40, ptr noundef @.str.447, i32 noundef %43)
  store ptr %44, ptr %13, align 8
  br label %53

45:                                               ; preds = %29, %24, %19
  %46 = load ptr, ptr %7, align 8
  %47 = load i32, ptr %8, align 4
  %48 = load ptr, ptr %9, align 8
  %49 = load i32, ptr %10, align 4
  %50 = load i32, ptr %11, align 4
  %51 = load ptr, ptr %12, align 8
  %52 = call ptr @proto_tree_add_time(ptr noundef %46, i32 noundef %47, ptr noundef %48, i32 noundef %49, i32 noundef %50, ptr noundef %51)
  store ptr %52, ptr %13, align 8
  br label %53

53:                                               ; preds = %45, %34
  %54 = load ptr, ptr %13, align 8
  call void @llvm.lifetime.end.p0(i64 8, ptr %13) #14
  ret ptr %54
}