; Function Attrs: null_pointer_is_valid sspstrong uwtable
define internal fastcc ptr @dissect_relative_time(ptr noundef %0, i32 noundef %1, ptr noundef %2, i32 noundef %3, i32 noundef range(i32 0, 65536) %4, ptr noundef %5) unnamed_addr #2 {
  %.not = icmp eq ptr %5, null
  br i1 %.not, label %7, label %8

7:                                                ; preds = %6
  tail call void (ptr, ...) @proto_report_dissector_bug(ptr noundef nonnull @.str.425, ptr noundef nonnull @.str.426, i32 noundef 2585, ptr noundef nonnull @.str.446) #13
  unreachable

8:                                                ; preds = %6
  %9 = load i64, ptr %5, align 8
  %10 = icmp eq i64 %9, 0
  br i1 %10, label %11, label %17

11:                                               ; preds = %8
  %12 = getelementptr inbounds nuw i8, ptr %5, i64 8
  %13 = load i32, ptr %12, align 8
  %14 = add i32 %13, 999999
  %or.cond = icmp ult i32 %14, 1999999
  br i1 %or.cond, label %15, label %17

15:                                               ; preds = %11
  %16 = tail call ptr (ptr, i32, ptr, i32, i32, ptr, ptr, ...) @proto_tree_add_time_format_value(ptr noundef %0, i32 noundef %1, ptr noundef %2, i32 noundef %3, i32 noundef %4, ptr noundef nonnull %5, ptr noundef nonnull @.str.447, i32 noundef %13)
  br label %19

17:                                               ; preds = %11, %8
  %18 = tail call ptr @proto_tree_add_time(ptr noundef %0, i32 noundef %1, ptr noundef %2, i32 noundef %3, i32 noundef %4, ptr noundef nonnull %5)
  br label %19

19:                                               ; preds = %17, %15
  %.0 = phi ptr [ %16, %15 ], [ %18, %17 ]
  ret ptr %.0
}